; Function Attrs: mustprogress uwtable
define void @_ZN8QuantLib9CPICouponC2EdRKNS_4DateEdS3_S3_RKN5boost10shared_ptrINS_18ZeroInflationIndexEEERKNS_6PeriodENS_3CPI17InterpolationTypeERKNS_10DayCounterEdS3_S3_S3_(ptr noundef nonnull align 8 dereferenceable(192) %this, ptr noundef %vtt, double noundef %baseCPI, ptr noundef nonnull align 8 dereferenceable(8) %paymentDate, double noundef %nominal, ptr noundef nonnull align 8 dereferenceable(8) %startDate, ptr noundef nonnull align 8 dereferenceable(8) %endDate, ptr nocapture noundef nonnull readonly align 8 dereferenceable(16) %index, ptr noundef nonnull align 4 dereferenceable(8) %observationLag, i32 noundef %observationInterpolation, ptr nocapture noundef nonnull readonly align 8 dereferenceable(16) %dayCounter, double noundef %fixedRate, ptr noundef nonnull align 8 dereferenceable(8) %refPeriodStart, ptr noundef nonnull align 8 dereferenceable(8) %refPeriodEnd, ptr noundef nonnull align 8 dereferenceable(8) %exCouponDate) unnamed_addr #8 align 2 {
entry:
  %ref.tmp = alloca %"class.QuantLib::Date", align 8
  call void @llvm.lifetime.start.p0(i64 8, ptr nonnull %ref.tmp) #31
  call void @_ZN8QuantLib4DateC1Ev(ptr noundef nonnull align 8 dereferenceable(8) %ref.tmp)
  call void @_ZN8QuantLib9CPICouponC2EdRKNS_4DateES3_dS3_S3_RKN5boost10shared_ptrINS_18ZeroInflationIndexEEERKNS_6PeriodENS_3CPI17InterpolationTypeERKNS_10DayCounterEdS3_S3_S3_(ptr noundef nonnull align 8 dereferenceable(192) %this, ptr noundef %vtt, double noundef %baseCPI, ptr noundef nonnull align 8 dereferenceable(8) %ref.tmp, ptr noundef nonnull align 8 dereferenceable(8) %paymentDate, double noundef %nominal, ptr noundef nonnull align 8 dereferenceable(8) %startDate, ptr noundef nonnull align 8 dereferenceable(8) %endDate, ptr noundef nonnull align 8 dereferenceable(16) %index, ptr noundef nonnull align 4 dereferenceable(8) %observationLag, i32 noundef %observationInterpolation, ptr noundef nonnull align 8 dereferenceable(16) %dayCounter, double noundef %fixedRate, ptr noundef nonnull align 8 dereferenceable(8) %refPeriodStart, ptr noundef nonnull align 8 dereferenceable(8) %refPeriodEnd, ptr noundef nonnull align 8 dereferenceable(8) %exCouponDate)
  call void @llvm.lifetime.end.p0(i64 8, ptr nonnull %ref.tmp) #31
  ret void
}